target datalayout = "e-m:e-p270:32:32-p271:32:32-p272:64:64-i64:64-i128:128-f80:128-n8:16:32:64-S128"
target triple = "x86_64-pc-linux-gnu"

%union.pthread_mutex_t = type { %struct.__pthread_mutex_s }
%struct.__pthread_mutex_s = type { i32, i32, i32, i32, i32, i16, i16, %struct.__pthread_internal_list }
%struct.__pthread_internal_list = type { ptr, ptr }
%struct.Abs_ThData_t_ = type { ptr, i32, i32 }
%struct.Ssw_Pars_t_ = type { i32, i32, i32, i32, i32, i32, i32, i32, i32, i32, i32, i32, i32, i32, i32, i32, i32, i32, i32, i32, i32, i32, i32, i32, i32, i32, i32, i32, i32, i32, i32, i32, i32, i32, i32, i32, i32, i32, i32, i32, i32, i32, ptr, ptr }
%struct.Gia_Man_t_ = type { ptr, ptr, i32, i32, i32, i32, ptr, ptr, i32, i32, i32, ptr, ptr, %struct.Vec_Int_t_, %struct.Vec_Int_t_, i32, i32, i32, %struct.Vec_Int_t_, ptr, ptr, ptr, i32, i32, i32, i32, ptr, ptr, ptr, ptr, ptr, i32, i32, ptr, i32, ptr, ptr, ptr, ptr, ptr, ptr, ptr, ptr, ptr, ptr, ptr, ptr, ptr, ptr, ptr, ptr, ptr, ptr, %struct.Vec_Int_t_, %struct.Vec_Int_t_, ptr, ptr, ptr, ptr, ptr, ptr, ptr, ptr, ptr, ptr, ptr, ptr, ptr, ptr, ptr, ptr, ptr, ptr, ptr, ptr, ptr, i32, float, float, ptr, ptr, i32, ptr, ptr, ptr, ptr, ptr, ptr, ptr, ptr, ptr, ptr, ptr, ptr, ptr, ptr, ptr, i64, i64, ptr, ptr, i32, i32, i32, i32, i32, i32, i32, i32, i32, i32, i32, i32, ptr, ptr, ptr, ptr, ptr, ptr, ptr, ptr, i32, i32, i32, ptr, i32, i32, ptr, ptr, ptr, ptr, ptr, ptr, i32, i32, ptr, %struct.Vec_Int_t_, %struct.Vec_Int_t_, %struct.Vec_Int_t_, ptr, ptr, ptr, i32, i32, i32, i32, ptr, ptr, ptr, ptr, ptr }
%struct.Vec_Int_t_ = type { i32, i32, ptr }

@g_mutex = global %union.pthread_mutex_t zeroinitializer, align 8
@g_nRunIds = internal global i32 0, align 4
@g_fAbstractionProved = internal global i32 0, align 4
@.str.3 = private unnamed_addr constant [34 x i8] c"\0ATrying to prove abstraction %d.\0A\00", align 1

; Function Attrs: nounwind uwtable
define void @Gia_GlaProveAbsracted(ptr noundef %0, i32 noundef %1, i32 noundef %2) #0 {
  %4 = alloca ptr, align 8
  %5 = alloca i32, align 4
  %6 = alloca i32, align 4
  %7 = alloca ptr, align 8
  %8 = alloca %struct.Ssw_Pars_t_, align 8
  %9 = alloca ptr, align 8
  %10 = alloca ptr, align 8
  %11 = alloca ptr, align 8
  %12 = alloca ptr, align 8
  %13 = alloca i64, align 8
  %14 = alloca i32, align 4
  store ptr %0, ptr %4, align 8, !tbaa !31
  store i32 %1, ptr %5, align 4, !tbaa !3
  store i32 %2, ptr %6, align 4, !tbaa !3
  call void @llvm.lifetime.start.p0(i64 8, ptr %7) #10
  call void @llvm.lifetime.start.p0(i64 184, ptr %8) #10
  call void @llvm.lifetime.start.p0(i64 8, ptr %9) #10
  store ptr %8, ptr %9, align 8, !tbaa !33
  call void @llvm.lifetime.start.p0(i64 8, ptr %10) #10
  call void @llvm.lifetime.start.p0(i64 8, ptr %11) #10
  call void @llvm.lifetime.start.p0(i64 8, ptr %12) #10
  call void @llvm.lifetime.start.p0(i64 8, ptr %13) #10
  call void @llvm.lifetime.start.p0(i64 4, ptr %14) #10
  %15 = load ptr, ptr %4, align 8, !tbaa !31
  %16 = load ptr, ptr %4, align 8, !tbaa !31
  %17 = getelementptr inbounds nuw %struct.Gia_Man_t_, ptr %16, i32 0, i32 58
  %18 = load ptr, ptr %17, align 8, !tbaa !35
  %19 = call ptr @Gia_ManDupAbsGates(ptr noundef %15, ptr noundef %18)
  store ptr %19, ptr %12, align 8, !tbaa !31
  %20 = load ptr, ptr %4, align 8, !tbaa !31
  call void @Gia_ManCleanValue(ptr noundef %20)
  %21 = load ptr, ptr %12, align 8, !tbaa !31
  %22 = call ptr @Gia_ManToAigSimple(ptr noundef %21)
  store ptr %22, ptr %10, align 8, !tbaa !7
  %23 = load ptr, ptr %12, align 8, !tbaa !31
  call void @Gia_ManStop(ptr noundef %23)
  %24 = load i32, ptr %5, align 4, !tbaa !3
  %25 = icmp ne i32 %24, 0
  br i1 %25, label %26, label %34

26:                                               ; preds = %3
  %27 = load ptr, ptr %9, align 8, !tbaa !33
  call void @Ssw_ManSetDefaultParams(ptr noundef %27)
  %28 = load ptr, ptr %9, align 8, !tbaa !33
  %29 = getelementptr inbounds nuw %struct.Ssw_Pars_t_, ptr %28, i32 0, i32 3
  store i32 4, ptr %29, align 4, !tbaa !52
  %30 = load ptr, ptr %10, align 8, !tbaa !7
  store ptr %30, ptr %11, align 8, !tbaa !7
  %31 = load ptr, ptr %9, align 8, !tbaa !33
  %32 = call ptr @Ssw_SignalCorrespondence(ptr noundef %30, ptr noundef %31)
  store ptr %32, ptr %10, align 8, !tbaa !7
  %33 = load ptr, ptr %11, align 8, !tbaa !7
  call void @Aig_ManStop(ptr noundef %33)
  br label %34

34:                                               ; preds = %26, %3
  %35 = call i32 @pthread_mutex_lock(ptr noundef @g_mutex) #10
  store i32 %35, ptr %14, align 4, !tbaa !3
  store volatile i32 0, ptr @g_fAbstractionProved, align 4, !tbaa !3
  %36 = call i32 @pthread_mutex_unlock(ptr noundef @g_mutex) #10
  store i32 %36, ptr %14, align 4, !tbaa !3
  %37 = call noalias ptr @calloc(i64 noundef 1, i64 noundef 16) #14
  store ptr %37, ptr %7, align 8, !tbaa !22
  %38 = load ptr, ptr %10, align 8, !tbaa !7
  %39 = load ptr, ptr %7, align 8, !tbaa !22
  %40 = getelementptr inbounds nuw %struct.Abs_ThData_t_, ptr %39, i32 0, i32 0
  store ptr %38, ptr %40, align 8, !tbaa !27
  %41 = load i32, ptr %6, align 4, !tbaa !3
  %42 = load ptr, ptr %7, align 8, !tbaa !22
  %43 = getelementptr inbounds nuw %struct.Abs_ThData_t_, ptr %42, i32 0, i32 1
  store i32 %41, ptr %43, align 8, !tbaa !28
  %44 = call i32 @pthread_mutex_lock(ptr noundef @g_mutex) #10
  store i32 %44, ptr %14, align 4, !tbaa !3
  %45 = load volatile i32, ptr @g_nRunIds, align 4, !tbaa !3
  %46 = add nsw i32 %45, 1
  store volatile i32 %46, ptr @g_nRunIds, align 4, !tbaa !3
  %47 = load ptr, ptr %7, align 8, !tbaa !22
  %48 = getelementptr inbounds nuw %struct.Abs_ThData_t_, ptr %47, i32 0, i32 2
  store i32 %46, ptr %48, align 4, !tbaa !25
  %49 = call i32 @pthread_mutex_unlock(ptr noundef @g_mutex) #10
  store i32 %49, ptr %14, align 4, !tbaa !3
  %50 = load i32, ptr %6, align 4, !tbaa !3
  %51 = icmp ne i32 %50, 0
  br i1 %51, label %52, label %56

52:                                               ; preds = %34
  %53 = load ptr, ptr %7, align 8, !tbaa !22
  %54 = getelementptr inbounds nuw %struct.Abs_ThData_t_, ptr %53, i32 0, i32 2
  %55 = load i32, ptr %54, align 4, !tbaa !25
  call void (i32, ptr, ...) @Abc_Print(i32 noundef 1, ptr noundef @.str.3, i32 noundef %55)
  br label %56

56:                                               ; preds = %52, %34
  %57 = load ptr, ptr %7, align 8, !tbaa !22
  %58 = call i32 @pthread_create(ptr noundef %13, ptr noundef null, ptr noundef @Abs_ProverThread, ptr noundef %57) #10
  store i32 %58, ptr %14, align 4, !tbaa !3
  call void @llvm.lifetime.end.p0(i64 4, ptr %14) #10
  call void @llvm.lifetime.end.p0(i64 8, ptr %13) #10
  call void @llvm.lifetime.end.p0(i64 8, ptr %12) #10
  call void @llvm.lifetime.end.p0(i64 8, ptr %11) #10
  call void @llvm.lifetime.end.p0(i64 8, ptr %10) #10
  call void @llvm.lifetime.end.p0(i64 8, ptr %9) #10
  call void @llvm.lifetime.end.p0(i64 184, ptr %8) #10
  call void @llvm.lifetime.end.p0(i64 8, ptr %7) #10
  ret void
}