; Function Attrs: nounwind uwtable
define void @Gia_GlaProveAbsracted(ptr noundef %0, i32 noundef %1, i32 noundef %2) local_unnamed_addr #1 {
  %4 = alloca %struct.Ssw_Pars_t_, align 8
  %5 = alloca i64, align 8
  call void @llvm.lifetime.start.p0(i64 184, ptr nonnull %4) #13
  call void @llvm.lifetime.start.p0(i64 8, ptr nonnull %5) #13
  %6 = getelementptr inbounds nuw i8, ptr %0, i64 448
  %7 = load ptr, ptr %6, align 8, !tbaa !27
  %8 = tail call ptr @Gia_ManDupAbsGates(ptr noundef %0, ptr noundef %7) #13
  tail call void @Gia_ManCleanValue(ptr noundef %0) #13
  %9 = tail call ptr @Gia_ManToAigSimple(ptr noundef %8) #13
  tail call void @Gia_ManStop(ptr noundef %8) #13
  %.not = icmp eq i32 %1, 0
  br i1 %.not, label %13, label %10

10:                                               ; preds = %3
  call void @Ssw_ManSetDefaultParams(ptr noundef nonnull %4) #13
  %11 = getelementptr inbounds nuw i8, ptr %4, i64 12
  store i32 4, ptr %11, align 4, !tbaa !45
  %12 = call ptr @Ssw_SignalCorrespondence(ptr noundef %9, ptr noundef nonnull %4) #13
  call void @Aig_ManStop(ptr noundef %9) #13
  br label %13

13:                                               ; preds = %10, %3
  %.0 = phi ptr [ %12, %10 ], [ %9, %3 ]
  %14 = call i32 @pthread_mutex_lock(ptr noundef nonnull @g_mutex) #13
  store volatile i32 0, ptr @g_fAbstractionProved, align 4, !tbaa !3
  %15 = call i32 @pthread_mutex_unlock(ptr noundef nonnull @g_mutex) #13
  %16 = call noalias dereferenceable_or_null(16) ptr @calloc(i64 noundef 1, i64 noundef 16) #16
  store ptr %.0, ptr %16, align 8, !tbaa !20
  %17 = getelementptr inbounds nuw i8, ptr %16, i64 8
  store i32 %2, ptr %17, align 8, !tbaa !21
  %18 = call i32 @pthread_mutex_lock(ptr noundef nonnull @g_mutex) #13
  %19 = load volatile i32, ptr @g_nRunIds, align 4, !tbaa !3
  %20 = add nsw i32 %19, 1
  store volatile i32 %20, ptr @g_nRunIds, align 4, !tbaa !3
  %21 = getelementptr inbounds nuw i8, ptr %16, i64 12
  store i32 %20, ptr %21, align 4, !tbaa !17
  %22 = call i32 @pthread_mutex_unlock(ptr noundef nonnull @g_mutex) #13
  %.not18 = icmp eq i32 %2, 0
  br i1 %.not18, label %24, label %23

23:                                               ; preds = %13
  call void (i32, ptr, ...) @Abc_Print(i32 poison, ptr noundef nonnull @.str.3, i32 noundef %20)
  br label %24

24:                                               ; preds = %23, %13
  %25 = call i32 @pthread_create(ptr noundef nonnull %5, ptr noundef null, ptr noundef nonnull @Abs_ProverThread, ptr noundef nonnull %16) #13
  call void @llvm.lifetime.end.p0(i64 8, ptr nonnull %5) #13
  call void @llvm.lifetime.end.p0(i64 184, ptr nonnull %4) #13
  ret void
}